target datalayout = "e-m:e-p270:32:32-p271:32:32-p272:64:64-i64:64-i128:128-f80:128-n8:16:32:64-S128"
target triple = "x86_64-pc-linux-gnu"

%struct._object = type { %union.anon, ptr }
%union.anon = type { i64 }
%struct._typeobject = type { %struct.PyVarObject, ptr, i64, i64, ptr, i64, ptr, ptr, ptr, ptr, ptr, ptr, ptr, ptr, ptr, ptr, ptr, ptr, ptr, i64, ptr, ptr, ptr, ptr, i64, ptr, ptr, ptr, ptr, ptr, ptr, ptr, ptr, ptr, i64, ptr, ptr, ptr, ptr, ptr, ptr, ptr, ptr, ptr, ptr, ptr, i32, ptr, ptr, i8, i16 }
%struct.PyVarObject = type { %struct._object, i64 }
%struct.anon = type { i32, i32 }

@PyExc_RuntimeError = external global ptr, align 8
@PyFunction_Type = external global %struct._typeobject, align 8
@PyExc_TypeError = external global ptr, align 8
@.str.54 = private unnamed_addr constant [26 x i8] c"'func' must be a function\00", align 1
@func_watcher_ids = internal global [2 x i32] [i32 -1, i32 -1], align 4
@.str.55 = private unnamed_addr constant [22 x i8] c"no free test watchers\00", align 1
@func_watcher_callbacks = internal global [2 x ptr] [ptr @first_func_watcher_callback, ptr @second_func_watcher_callback], align 16
@pyfunc_watchers = internal global [2 x ptr] zeroinitializer, align 16

; Function Attrs: alwaysinline nounwind uwtable
define internal void @Py_INCREF(ptr noundef %0) #5 {
  %2 = alloca ptr, align 8
  %3 = alloca i32, align 4
  %4 = alloca i32, align 4
  store ptr %0, ptr %2, align 8, !tbaa !3
  call void @llvm.lifetime.start.p0(i64 4, ptr %3) #6
  %5 = load ptr, ptr %2, align 8, !tbaa !3
  %6 = getelementptr inbounds nuw %struct._object, ptr %5, i32 0, i32 0
  %7 = getelementptr inbounds nuw %struct.anon, ptr %6, i32 0, i32 0
  %8 = load i32, ptr %7, align 8, !tbaa !52
  store i32 %8, ptr %3, align 4, !tbaa !10
  %9 = load i32, ptr %3, align 4, !tbaa !10
  %10 = icmp slt i32 %9, 0
  br i1 %10, label %11, label %12

11:                                               ; preds = %1
  store i32 1, ptr %4, align 4
  br label %18

12:                                               ; preds = %1
  %13 = load i32, ptr %3, align 4, !tbaa !10
  %14 = add i32 %13, 1
  %15 = load ptr, ptr %2, align 8, !tbaa !3
  %16 = getelementptr inbounds nuw %struct._object, ptr %15, i32 0, i32 0
  %17 = getelementptr inbounds nuw %struct.anon, ptr %16, i32 0, i32 0
  store i32 %14, ptr %17, align 8, !tbaa !52
  store i32 0, ptr %4, align 4
  br label %18

18:                                               ; preds = %12, %11
  call void @llvm.lifetime.end.p0(i64 4, ptr %3) #6
  %19 = load i32, ptr %4, align 4
  switch i32 %19, label %21 [
    i32 0, label %20
    i32 1, label %20
  ]

20:                                               ; preds = %18, %18
  ret void

21:                                               ; preds = %18
  unreachable
}

; Function Attrs: inlinehint nounwind uwtable
define internal ptr @_Py_TYPE(ptr noundef %0) #3 {
  %2 = alloca ptr, align 8
  store ptr %0, ptr %2, align 8, !tbaa !3
  %3 = load ptr, ptr %2, align 8, !tbaa !3
  %4 = getelementptr inbounds nuw %struct._object, ptr %3, i32 0, i32 1
  %5 = load ptr, ptr %4, align 8, !tbaa !51
  ret ptr %5
}

; Function Attrs: inlinehint nounwind uwtable
define internal ptr @_Py_NewRef(ptr noundef %0) #3 {
  %2 = alloca ptr, align 8
  store ptr %0, ptr %2, align 8, !tbaa !3
  %3 = load ptr, ptr %2, align 8, !tbaa !3
  call void @Py_INCREF(ptr noundef %3)
  %4 = load ptr, ptr %2, align 8, !tbaa !3
  ret ptr %4
}

; Function Attrs: inlinehint nounwind uwtable
define internal i32 @Py_IS_TYPE(ptr noundef %0, ptr noundef %1) #3 {
  %3 = alloca ptr, align 8
  %4 = alloca ptr, align 8
  store ptr %0, ptr %3, align 8, !tbaa !3
  store ptr %1, ptr %4, align 8, !tbaa !43
  %5 = load ptr, ptr %3, align 8, !tbaa !3
  %6 = call ptr @_Py_TYPE(ptr noundef %5)
  %7 = load ptr, ptr %4, align 8, !tbaa !43
  %8 = icmp eq ptr %6, %7
  %9 = zext i1 %8 to i32
  ret i32 %9
}

; Function Attrs: nounwind uwtable
define internal ptr @add_func_watcher(ptr noundef %0, ptr noundef %1) #0 {
  %3 = alloca ptr, align 8
  %4 = alloca ptr, align 8
  %5 = alloca ptr, align 8
  %6 = alloca i32, align 4
  %7 = alloca i32, align 4
  %8 = alloca i32, align 4
  %9 = alloca ptr, align 8
  store ptr %0, ptr %4, align 8, !tbaa !3
  store ptr %1, ptr %5, align 8, !tbaa !3
  %10 = load ptr, ptr %5, align 8, !tbaa !3
  %11 = call i32 @Py_IS_TYPE(ptr noundef %10, ptr noundef @PyFunction_Type)
  %12 = icmp ne i32 %11, 0
  br i1 %12, label %15, label %13

13:                                               ; preds = %2
  %14 = load ptr, ptr @PyExc_TypeError, align 8, !tbaa !3
  call void @PyErr_SetString(ptr noundef %14, ptr noundef @.str.54)
  store ptr null, ptr %3, align 8
  br label %72

15:                                               ; preds = %2
  call void @llvm.lifetime.start.p0(i64 4, ptr %6) #6
  store i32 -1, ptr %6, align 4, !tbaa !10
  call void @llvm.lifetime.start.p0(i64 4, ptr %7) #6
  store i32 0, ptr %7, align 4, !tbaa !10
  br label %16

16:                                               ; preds = %29, %15
  %17 = load i32, ptr %7, align 4, !tbaa !10
  %18 = icmp slt i32 %17, 2
  br i1 %18, label %20, label %19

19:                                               ; preds = %16
  store i32 2, ptr %8, align 4
  br label %32

20:                                               ; preds = %16
  %21 = load i32, ptr %7, align 4, !tbaa !10
  %22 = sext i32 %21 to i64
  %23 = getelementptr [2 x i32], ptr @func_watcher_ids, i64 0, i64 %22
  %24 = load i32, ptr %23, align 4, !tbaa !10
  %25 = icmp eq i32 %24, -1
  br i1 %25, label %26, label %28

26:                                               ; preds = %20
  %27 = load i32, ptr %7, align 4, !tbaa !10
  store i32 %27, ptr %6, align 4, !tbaa !10
  store i32 2, ptr %8, align 4
  br label %32

28:                                               ; preds = %20
  br label %29

29:                                               ; preds = %28
  %30 = load i32, ptr %7, align 4, !tbaa !10
  %31 = add i32 %30, 1
  store i32 %31, ptr %7, align 4, !tbaa !10
  br label %16, !llvm.loop !20

32:                                               ; preds = %26, %19
  call void @llvm.lifetime.end.p0(i64 4, ptr %7) #6
  br label %33

33:                                               ; preds = %32
  %34 = load i32, ptr %6, align 4, !tbaa !10
  %35 = icmp eq i32 %34, -1
  br i1 %35, label %36, label %38

36:                                               ; preds = %33
  %37 = load ptr, ptr @PyExc_RuntimeError, align 8, !tbaa !3
  call void @PyErr_SetString(ptr noundef %37, ptr noundef @.str.55)
  store ptr null, ptr %3, align 8
  store i32 1, ptr %8, align 4
  br label %71

38:                                               ; preds = %33
  %39 = load i32, ptr %6, align 4, !tbaa !10
  %40 = sext i32 %39 to i64
  %41 = getelementptr [2 x ptr], ptr @func_watcher_callbacks, i64 0, i64 %40
  %42 = load ptr, ptr %41, align 8, !tbaa !21
  %43 = call i32 @PyFunction_AddWatcher(ptr noundef %42)
  %44 = load i32, ptr %6, align 4, !tbaa !10
  %45 = sext i32 %44 to i64
  %46 = getelementptr [2 x i32], ptr @func_watcher_ids, i64 0, i64 %45
  store i32 %43, ptr %46, align 4, !tbaa !10
  %47 = load i32, ptr %6, align 4, !tbaa !10
  %48 = sext i32 %47 to i64
  %49 = getelementptr [2 x i32], ptr @func_watcher_ids, i64 0, i64 %48
  %50 = load i32, ptr %49, align 4, !tbaa !10
  %51 = icmp slt i32 %50, 0
  br i1 %51, label %52, label %53

52:                                               ; preds = %38
  store ptr null, ptr %3, align 8
  store i32 1, ptr %8, align 4
  br label %71

53:                                               ; preds = %38
  %54 = load ptr, ptr %5, align 8, !tbaa !3
  %55 = call ptr @_Py_NewRef(ptr noundef %54)
  %56 = load i32, ptr %6, align 4, !tbaa !10
  %57 = sext i32 %56 to i64
  %58 = getelementptr [2 x ptr], ptr @pyfunc_watchers, i64 0, i64 %57
  store ptr %55, ptr %58, align 8, !tbaa !3
  call void @llvm.lifetime.start.p0(i64 8, ptr %9) #6
  %59 = load i32, ptr %6, align 4, !tbaa !10
  %60 = sext i32 %59 to i64
  %61 = getelementptr [2 x i32], ptr @func_watcher_ids, i64 0, i64 %60
  %62 = load i32, ptr %61, align 4, !tbaa !10
  %63 = sext i32 %62 to i64
  %64 = call ptr @PyLong_FromLong(i64 noundef %63)
  store ptr %64, ptr %9, align 8, !tbaa !3
  %65 = load ptr, ptr %9, align 8, !tbaa !3
  %66 = icmp eq ptr %65, null
  br i1 %66, label %67, label %68

67:                                               ; preds = %53
  store ptr null, ptr %3, align 8
  store i32 1, ptr %8, align 4
  br label %70

68:                                               ; preds = %53
  %69 = load ptr, ptr %9, align 8, !tbaa !3
  store ptr %69, ptr %3, align 8
  store i32 1, ptr %8, align 4
  br label %70

70:                                               ; preds = %68, %67
  call void @llvm.lifetime.end.p0(i64 8, ptr %9) #6
  br label %71

71:                                               ; preds = %70, %52, %36
  call void @llvm.lifetime.end.p0(i64 4, ptr %6) #6
  br label %72

72:                                               ; preds = %71, %13
  %73 = load ptr, ptr %3, align 8
  ret ptr %73
}