; Function Attrs: nounwind uwtable
define internal ptr @add_func_watcher(ptr readnone captures(none) %0, ptr noundef %1) #0 {
  %3 = getelementptr i8, ptr %1, i64 8
  %.val = load ptr, ptr %3, align 8, !tbaa !3
  %.not = icmp eq ptr %.val, @PyFunction_Type
  br i1 %.not, label %.preheader, label %4

4:                                                ; preds = %2
  %5 = load ptr, ptr @PyExc_TypeError, align 8, !tbaa !21
  tail call void @PyErr_SetString(ptr noundef %5, ptr noundef nonnull @.str.54) #6
  br label %27

.preheader:                                       ; preds = %2, %10
  %6 = phi i1 [ false, %10 ], [ true, %2 ]
  %indvars.iv = phi i64 [ 1, %10 ], [ 0, %2 ]
  %7 = getelementptr [2 x i32], ptr @func_watcher_ids, i64 0, i64 %indvars.iv
  %8 = load i32, ptr %7, align 4, !tbaa !20
  %9 = icmp eq i32 %8, -1
  br i1 %9, label %13, label %10

10:                                               ; preds = %.preheader
  br i1 %6, label %.preheader, label %11, !llvm.loop !27

11:                                               ; preds = %10
  %12 = load ptr, ptr @PyExc_RuntimeError, align 8, !tbaa !21
  tail call void @PyErr_SetString(ptr noundef %12, ptr noundef nonnull @.str.55) #6
  br label %27

13:                                               ; preds = %.preheader
  %14 = getelementptr [2 x ptr], ptr @func_watcher_callbacks, i64 0, i64 %indvars.iv
  %15 = load ptr, ptr %14, align 8, !tbaa !28
  %16 = tail call i32 @PyFunction_AddWatcher(ptr noundef %15) #6
  %17 = getelementptr [2 x i32], ptr @func_watcher_ids, i64 0, i64 %indvars.iv
  store i32 %16, ptr %17, align 4, !tbaa !20
  %18 = icmp slt i32 %16, 0
  br i1 %18, label %27, label %19

19:                                               ; preds = %13
  %20 = load i32, ptr %1, align 8, !tbaa !22
  %21 = icmp slt i32 %20, 0
  br i1 %21, label %_Py_NewRef.exit, label %22

22:                                               ; preds = %19
  %23 = add nuw i32 %20, 1
  store i32 %23, ptr %1, align 8, !tbaa !22
  br label %_Py_NewRef.exit

_Py_NewRef.exit:                                  ; preds = %19, %22
  %24 = getelementptr [2 x ptr], ptr @pyfunc_watchers, i64 0, i64 %indvars.iv
  store ptr %1, ptr %24, align 8, !tbaa !21
  %25 = zext nneg i32 %16 to i64
  %26 = tail call ptr @PyLong_FromLong(i64 noundef %25) #6
  br label %27

27:                                               ; preds = %11, %_Py_NewRef.exit, %13, %4
  %.0 = phi ptr [ null, %4 ], [ null, %11 ], [ %26, %_Py_NewRef.exit ], [ null, %13 ]
  ret ptr %.0
}